target datalayout = "e-m:e-p270:32:32-p271:32:32-p272:64:64-i64:64-i128:128-f80:128-n8:16:32:64-S128"
target triple = "x86_64-pc-linux-gnu"

%struct.Pln_Man_t_ = type { ptr, ptr, ptr, ptr, ptr, ptr, [2 x ptr], [4 x ptr], ptr, i32, i32 }
%struct.Hsh_VecMan_t_ = type { ptr, ptr, ptr, %struct.Vec_Int_t_, %struct.Vec_Int_t_, %struct.Vec_Int_t_ }
%struct.Vec_Int_t_ = type { i32, i32, ptr }
%struct.Vec_Que_t_ = type { i32, i32, ptr, ptr, ptr }
%struct.Vec_Flt_t_ = type { i32, i32, ptr }

; Function Attrs: inlinehint nounwind uwtable
define internal void @Vec_IntFree(ptr noundef %0) #3 {
  %2 = alloca ptr, align 8
  store ptr %0, ptr %2, align 8, !tbaa !8
  %3 = load ptr, ptr %2, align 8, !tbaa !8
  %4 = getelementptr inbounds nuw %struct.Vec_Int_t_, ptr %3, i32 0, i32 2
  %5 = load ptr, ptr %4, align 8, !tbaa !47
  %6 = icmp ne ptr %5, null
  br i1 %6, label %7, label %13

7:                                                ; preds = %1
  %8 = load ptr, ptr %2, align 8, !tbaa !8
  %9 = getelementptr inbounds nuw %struct.Vec_Int_t_, ptr %8, i32 0, i32 2
  %10 = load ptr, ptr %9, align 8, !tbaa !47
  call void @free(ptr noundef %10) #12
  %11 = load ptr, ptr %2, align 8, !tbaa !8
  %12 = getelementptr inbounds nuw %struct.Vec_Int_t_, ptr %11, i32 0, i32 2
  store ptr null, ptr %12, align 8, !tbaa !47
  br label %14

13:                                               ; preds = %1
  br label %14

14:                                               ; preds = %13, %7
  %15 = load ptr, ptr %2, align 8, !tbaa !8
  %16 = icmp ne ptr %15, null
  br i1 %16, label %17, label %19

17:                                               ; preds = %14
  %18 = load ptr, ptr %2, align 8, !tbaa !8
  call void @free(ptr noundef %18) #12
  store ptr null, ptr %2, align 8, !tbaa !8
  br label %20

19:                                               ; preds = %14
  br label %20

20:                                               ; preds = %19, %17
  ret void
}

; Function Attrs: inlinehint nounwind uwtable
define internal void @Vec_FltFree(ptr noundef %0) #3 {
  %2 = alloca ptr, align 8
  store ptr %0, ptr %2, align 8, !tbaa !39
  %3 = load ptr, ptr %2, align 8, !tbaa !39
  %4 = getelementptr inbounds nuw %struct.Vec_Flt_t_, ptr %3, i32 0, i32 2
  %5 = load ptr, ptr %4, align 8, !tbaa !44
  %6 = icmp ne ptr %5, null
  br i1 %6, label %7, label %13

7:                                                ; preds = %1
  %8 = load ptr, ptr %2, align 8, !tbaa !39
  %9 = getelementptr inbounds nuw %struct.Vec_Flt_t_, ptr %8, i32 0, i32 2
  %10 = load ptr, ptr %9, align 8, !tbaa !44
  call void @free(ptr noundef %10) #12
  %11 = load ptr, ptr %2, align 8, !tbaa !39
  %12 = getelementptr inbounds nuw %struct.Vec_Flt_t_, ptr %11, i32 0, i32 2
  store ptr null, ptr %12, align 8, !tbaa !44
  br label %14

13:                                               ; preds = %1
  br label %14

14:                                               ; preds = %13, %7
  %15 = load ptr, ptr %2, align 8, !tbaa !39
  %16 = icmp ne ptr %15, null
  br i1 %16, label %17, label %19

17:                                               ; preds = %14
  %18 = load ptr, ptr %2, align 8, !tbaa !39
  call void @free(ptr noundef %18) #12
  store ptr null, ptr %2, align 8, !tbaa !39
  br label %20

19:                                               ; preds = %14
  br label %20

20:                                               ; preds = %19, %17
  ret void
}

; Function Attrs: inlinehint nounwind uwtable
define internal void @Vec_QueFree(ptr noundef %0) #3 {
  %2 = alloca ptr, align 8
  store ptr %0, ptr %2, align 8, !tbaa !32
  %3 = load ptr, ptr %2, align 8, !tbaa !32
  %4 = getelementptr inbounds nuw %struct.Vec_Que_t_, ptr %3, i32 0, i32 3
  %5 = load ptr, ptr %4, align 8, !tbaa !38
  %6 = icmp ne ptr %5, null
  br i1 %6, label %7, label %13

7:                                                ; preds = %1
  %8 = load ptr, ptr %2, align 8, !tbaa !32
  %9 = getelementptr inbounds nuw %struct.Vec_Que_t_, ptr %8, i32 0, i32 3
  %10 = load ptr, ptr %9, align 8, !tbaa !38
  call void @free(ptr noundef %10) #12
  %11 = load ptr, ptr %2, align 8, !tbaa !32
  %12 = getelementptr inbounds nuw %struct.Vec_Que_t_, ptr %11, i32 0, i32 3
  store ptr null, ptr %12, align 8, !tbaa !38
  br label %14

13:                                               ; preds = %1
  br label %14

14:                                               ; preds = %13, %7
  %15 = load ptr, ptr %2, align 8, !tbaa !32
  %16 = getelementptr inbounds nuw %struct.Vec_Que_t_, ptr %15, i32 0, i32 2
  %17 = load ptr, ptr %16, align 8, !tbaa !37
  %18 = icmp ne ptr %17, null
  br i1 %18, label %19, label %25

19:                                               ; preds = %14
  %20 = load ptr, ptr %2, align 8, !tbaa !32
  %21 = getelementptr inbounds nuw %struct.Vec_Que_t_, ptr %20, i32 0, i32 2
  %22 = load ptr, ptr %21, align 8, !tbaa !37
  call void @free(ptr noundef %22) #12
  %23 = load ptr, ptr %2, align 8, !tbaa !32
  %24 = getelementptr inbounds nuw %struct.Vec_Que_t_, ptr %23, i32 0, i32 2
  store ptr null, ptr %24, align 8, !tbaa !37
  br label %26

25:                                               ; preds = %14
  br label %26

26:                                               ; preds = %25, %19
  %27 = load ptr, ptr %2, align 8, !tbaa !32
  %28 = icmp ne ptr %27, null
  br i1 %28, label %29, label %31

29:                                               ; preds = %26
  %30 = load ptr, ptr %2, align 8, !tbaa !32
  call void @free(ptr noundef %30) #12
  store ptr null, ptr %2, align 8, !tbaa !32
  br label %32

31:                                               ; preds = %26
  br label %32

32:                                               ; preds = %31, %29
  ret void
}

; Function Attrs: inlinehint nounwind uwtable
define internal void @Hsh_VecManStop(ptr noundef %0) #3 {
  %2 = alloca ptr, align 8
  store ptr %0, ptr %2, align 8, !tbaa !25
  %3 = load ptr, ptr %2, align 8, !tbaa !25
  %4 = getelementptr inbounds nuw %struct.Hsh_VecMan_t_, ptr %3, i32 0, i32 0
  %5 = load ptr, ptr %4, align 8, !tbaa !26
  call void @Vec_IntFree(ptr noundef %5)
  %6 = load ptr, ptr %2, align 8, !tbaa !25
  %7 = getelementptr inbounds nuw %struct.Hsh_VecMan_t_, ptr %6, i32 0, i32 1
  %8 = load ptr, ptr %7, align 8, !tbaa !30
  call void @Vec_IntFree(ptr noundef %8)
  %9 = load ptr, ptr %2, align 8, !tbaa !25
  %10 = getelementptr inbounds nuw %struct.Hsh_VecMan_t_, ptr %9, i32 0, i32 2
  %11 = load ptr, ptr %10, align 8, !tbaa !31
  call void @Vec_IntFree(ptr noundef %11)
  %12 = load ptr, ptr %2, align 8, !tbaa !25
  %13 = icmp ne ptr %12, null
  br i1 %13, label %14, label %16

14:                                               ; preds = %1
  %15 = load ptr, ptr %2, align 8, !tbaa !25
  call void @free(ptr noundef %15) #12
  store ptr null, ptr %2, align 8, !tbaa !25
  br label %17

16:                                               ; preds = %1
  br label %17

17:                                               ; preds = %16, %14
  ret void
}

; Function Attrs: nounwind uwtable
define void @Pln_ManStop(ptr noundef %0) #0 {
  %2 = alloca ptr, align 8
  store ptr %0, ptr %2, align 8, !tbaa !10
  %3 = load ptr, ptr %2, align 8, !tbaa !10
  %4 = getelementptr inbounds nuw %struct.Pln_Man_t_, ptr %3, i32 0, i32 1
  %5 = load ptr, ptr %4, align 8, !tbaa !18
  call void @Hsh_VecManStop(ptr noundef %5)
  %6 = load ptr, ptr %2, align 8, !tbaa !10
  %7 = getelementptr inbounds nuw %struct.Pln_Man_t_, ptr %6, i32 0, i32 2
  %8 = load ptr, ptr %7, align 8, !tbaa !19
  call void @Hsh_VecManStop(ptr noundef %8)
  %9 = load ptr, ptr %2, align 8, !tbaa !10
  %10 = getelementptr inbounds nuw %struct.Pln_Man_t_, ptr %9, i32 0, i32 3
  %11 = load ptr, ptr %10, align 8, !tbaa !20
  call void @Vec_QueFree(ptr noundef %11)
  %12 = load ptr, ptr %2, align 8, !tbaa !10
  %13 = getelementptr inbounds nuw %struct.Pln_Man_t_, ptr %12, i32 0, i32 4
  %14 = load ptr, ptr %13, align 8, !tbaa !21
  call void @Vec_FltFree(ptr noundef %14)
  %15 = load ptr, ptr %2, align 8, !tbaa !10
  %16 = getelementptr inbounds nuw %struct.Pln_Man_t_, ptr %15, i32 0, i32 5
  %17 = load ptr, ptr %16, align 8, !tbaa !22
  call void @Vec_IntFree(ptr noundef %17)
  %18 = load ptr, ptr %2, align 8, !tbaa !10
  %19 = getelementptr inbounds nuw %struct.Pln_Man_t_, ptr %18, i32 0, i32 6
  %20 = getelementptr inbounds [2 x ptr], ptr %19, i64 0, i64 0
  %21 = load ptr, ptr %20, align 8, !tbaa !8
  call void @Vec_IntFree(ptr noundef %21)
  %22 = load ptr, ptr %2, align 8, !tbaa !10
  %23 = getelementptr inbounds nuw %struct.Pln_Man_t_, ptr %22, i32 0, i32 6
  %24 = getelementptr inbounds [2 x ptr], ptr %23, i64 0, i64 1
  %25 = load ptr, ptr %24, align 8, !tbaa !8
  call void @Vec_IntFree(ptr noundef %25)
  %26 = load ptr, ptr %2, align 8, !tbaa !10
  %27 = getelementptr inbounds nuw %struct.Pln_Man_t_, ptr %26, i32 0, i32 7
  %28 = getelementptr inbounds [4 x ptr], ptr %27, i64 0, i64 0
  %29 = load ptr, ptr %28, align 8, !tbaa !8
  call void @Vec_IntFree(ptr noundef %29)
  %30 = load ptr, ptr %2, align 8, !tbaa !10
  %31 = getelementptr inbounds nuw %struct.Pln_Man_t_, ptr %30, i32 0, i32 7
  %32 = getelementptr inbounds [4 x ptr], ptr %31, i64 0, i64 1
  %33 = load ptr, ptr %32, align 8, !tbaa !8
  call void @Vec_IntFree(ptr noundef %33)
  %34 = load ptr, ptr %2, align 8, !tbaa !10
  %35 = getelementptr inbounds nuw %struct.Pln_Man_t_, ptr %34, i32 0, i32 7
  %36 = getelementptr inbounds [4 x ptr], ptr %35, i64 0, i64 2
  %37 = load ptr, ptr %36, align 8, !tbaa !8
  call void @Vec_IntFree(ptr noundef %37)
  %38 = load ptr, ptr %2, align 8, !tbaa !10
  %39 = getelementptr inbounds nuw %struct.Pln_Man_t_, ptr %38, i32 0, i32 7
  %40 = getelementptr inbounds [4 x ptr], ptr %39, i64 0, i64 3
  %41 = load ptr, ptr %40, align 8, !tbaa !8
  call void @Vec_IntFree(ptr noundef %41)
  %42 = load ptr, ptr %2, align 8, !tbaa !10
  %43 = getelementptr inbounds nuw %struct.Pln_Man_t_, ptr %42, i32 0, i32 8
  %44 = load ptr, ptr %43, align 8, !tbaa !23
  call void @Vec_IntFree(ptr noundef %44)
  %45 = load ptr, ptr %2, align 8, !tbaa !10
  %46 = icmp ne ptr %45, null
  br i1 %46, label %47, label %49

47:                                               ; preds = %1
  %48 = load ptr, ptr %2, align 8, !tbaa !10
  call void @free(ptr noundef %48) #12
  store ptr null, ptr %2, align 8, !tbaa !10
  br label %50

49:                                               ; preds = %1
  br label %50

50:                                               ; preds = %49, %47
  ret void
}