; Function Attrs: mustprogress nounwind willreturn uwtable
define void @Pln_ManStop(ptr noundef captures(none) %0) local_unnamed_addr #5 {
  %2 = getelementptr inbounds nuw i8, ptr %0, i64 8
  %3 = load ptr, ptr %2, align 8, !tbaa !14
  %4 = load ptr, ptr %3, align 8, !tbaa !60
  %5 = getelementptr inbounds nuw i8, ptr %4, i64 8
  %6 = load ptr, ptr %5, align 8, !tbaa !33
  %.not.i.i = icmp eq ptr %6, null
  br i1 %.not.i.i, label %Vec_IntFree.exit.i, label %7

7:                                                ; preds = %1
  tail call void @free(ptr noundef nonnull %6) #25
  br label %Vec_IntFree.exit.i

Vec_IntFree.exit.i:                               ; preds = %7, %1
  tail call void @free(ptr noundef nonnull %4) #25
  %8 = getelementptr inbounds nuw i8, ptr %3, i64 8
  %9 = load ptr, ptr %8, align 8, !tbaa !62
  %10 = getelementptr inbounds nuw i8, ptr %9, i64 8
  %11 = load ptr, ptr %10, align 8, !tbaa !33
  %.not.i5.i = icmp eq ptr %11, null
  br i1 %.not.i5.i, label %Vec_IntFree.exit6.i, label %12

12:                                               ; preds = %Vec_IntFree.exit.i
  tail call void @free(ptr noundef nonnull %11) #25
  br label %Vec_IntFree.exit6.i

Vec_IntFree.exit6.i:                              ; preds = %12, %Vec_IntFree.exit.i
  tail call void @free(ptr noundef nonnull %9) #25
  %13 = getelementptr inbounds nuw i8, ptr %3, i64 16
  %14 = load ptr, ptr %13, align 8, !tbaa !63
  %15 = getelementptr inbounds nuw i8, ptr %14, i64 8
  %16 = load ptr, ptr %15, align 8, !tbaa !33
  %.not.i7.i = icmp eq ptr %16, null
  br i1 %.not.i7.i, label %Hsh_VecManStop.exit, label %17

17:                                               ; preds = %Vec_IntFree.exit6.i
  tail call void @free(ptr noundef nonnull %16) #25
  br label %Hsh_VecManStop.exit

Hsh_VecManStop.exit:                              ; preds = %Vec_IntFree.exit6.i, %17
  tail call void @free(ptr noundef nonnull %14) #25
  tail call void @free(ptr noundef nonnull %3) #25
  %18 = getelementptr inbounds nuw i8, ptr %0, i64 16
  %19 = load ptr, ptr %18, align 8, !tbaa !15
  %20 = load ptr, ptr %19, align 8, !tbaa !60
  %21 = getelementptr inbounds nuw i8, ptr %20, i64 8
  %22 = load ptr, ptr %21, align 8, !tbaa !33
  %.not.i.i14 = icmp eq ptr %22, null
  br i1 %.not.i.i14, label %Vec_IntFree.exit.i15, label %23

23:                                               ; preds = %Hsh_VecManStop.exit
  tail call void @free(ptr noundef nonnull %22) #25
  br label %Vec_IntFree.exit.i15

Vec_IntFree.exit.i15:                             ; preds = %23, %Hsh_VecManStop.exit
  tail call void @free(ptr noundef nonnull %20) #25
  %24 = getelementptr inbounds nuw i8, ptr %19, i64 8
  %25 = load ptr, ptr %24, align 8, !tbaa !62
  %26 = getelementptr inbounds nuw i8, ptr %25, i64 8
  %27 = load ptr, ptr %26, align 8, !tbaa !33
  %.not.i5.i16 = icmp eq ptr %27, null
  br i1 %.not.i5.i16, label %Vec_IntFree.exit6.i17, label %28

28:                                               ; preds = %Vec_IntFree.exit.i15
  tail call void @free(ptr noundef nonnull %27) #25
  br label %Vec_IntFree.exit6.i17

Vec_IntFree.exit6.i17:                            ; preds = %28, %Vec_IntFree.exit.i15
  tail call void @free(ptr noundef nonnull %25) #25
  %29 = getelementptr inbounds nuw i8, ptr %19, i64 16
  %30 = load ptr, ptr %29, align 8, !tbaa !63
  %31 = getelementptr inbounds nuw i8, ptr %30, i64 8
  %32 = load ptr, ptr %31, align 8, !tbaa !33
  %.not.i7.i18 = icmp eq ptr %32, null
  br i1 %.not.i7.i18, label %Hsh_VecManStop.exit19, label %33

33:                                               ; preds = %Vec_IntFree.exit6.i17
  tail call void @free(ptr noundef nonnull %32) #25
  br label %Hsh_VecManStop.exit19

Hsh_VecManStop.exit19:                            ; preds = %Vec_IntFree.exit6.i17, %33
  tail call void @free(ptr noundef nonnull %30) #25
  tail call void @free(ptr noundef nonnull %19) #25
  %34 = getelementptr inbounds nuw i8, ptr %0, i64 24
  %35 = load ptr, ptr %34, align 8, !tbaa !23
  %36 = getelementptr inbounds nuw i8, ptr %35, i64 16
  %37 = load ptr, ptr %36, align 8, !tbaa !22
  %.not.i = icmp eq ptr %37, null
  br i1 %.not.i, label %39, label %38

38:                                               ; preds = %Hsh_VecManStop.exit19
  tail call void @free(ptr noundef nonnull %37) #25
  store ptr null, ptr %36, align 8, !tbaa !22
  br label %39

39:                                               ; preds = %38, %Hsh_VecManStop.exit19
  %40 = getelementptr inbounds nuw i8, ptr %35, i64 8
  %41 = load ptr, ptr %40, align 8, !tbaa !21
  %.not10.i = icmp eq ptr %41, null
  br i1 %.not10.i, label %Vec_QueFree.exit, label %42

42:                                               ; preds = %39
  tail call void @free(ptr noundef nonnull %41) #25
  br label %Vec_QueFree.exit

Vec_QueFree.exit:                                 ; preds = %39, %42
  tail call void @free(ptr noundef nonnull %35) #25
  %43 = getelementptr inbounds nuw i8, ptr %0, i64 32
  %44 = load ptr, ptr %43, align 8, !tbaa !29
  %45 = getelementptr inbounds nuw i8, ptr %44, i64 8
  %46 = load ptr, ptr %45, align 8, !tbaa !28
  %.not.i20 = icmp eq ptr %46, null
  br i1 %.not.i20, label %Vec_FltFree.exit, label %47

47:                                               ; preds = %Vec_QueFree.exit
  tail call void @free(ptr noundef nonnull %46) #25
  br label %Vec_FltFree.exit

Vec_FltFree.exit:                                 ; preds = %Vec_QueFree.exit, %47
  tail call void @free(ptr noundef nonnull %44) #25
  %48 = getelementptr inbounds nuw i8, ptr %0, i64 40
  %49 = load ptr, ptr %48, align 8, !tbaa !34
  %50 = getelementptr inbounds nuw i8, ptr %49, i64 8
  %51 = load ptr, ptr %50, align 8, !tbaa !33
  %.not.i21 = icmp eq ptr %51, null
  br i1 %.not.i21, label %Vec_IntFree.exit, label %52

52:                                               ; preds = %Vec_FltFree.exit
  tail call void @free(ptr noundef nonnull %51) #25
  br label %Vec_IntFree.exit

Vec_IntFree.exit:                                 ; preds = %Vec_FltFree.exit, %52
  tail call void @free(ptr noundef nonnull %49) #25
  %53 = getelementptr inbounds nuw i8, ptr %0, i64 48
  %54 = load ptr, ptr %53, align 8, !tbaa !35
  %55 = getelementptr inbounds nuw i8, ptr %54, i64 8
  %56 = load ptr, ptr %55, align 8, !tbaa !33
  %.not.i22 = icmp eq ptr %56, null
  br i1 %.not.i22, label %Vec_IntFree.exit23, label %57

57:                                               ; preds = %Vec_IntFree.exit
  tail call void @free(ptr noundef nonnull %56) #25
  br label %Vec_IntFree.exit23

Vec_IntFree.exit23:                               ; preds = %Vec_IntFree.exit, %57
  tail call void @free(ptr noundef nonnull %54) #25
  %58 = getelementptr inbounds nuw i8, ptr %0, i64 56
  %59 = load ptr, ptr %58, align 8, !tbaa !35
  %60 = getelementptr inbounds nuw i8, ptr %59, i64 8
  %61 = load ptr, ptr %60, align 8, !tbaa !33
  %.not.i24 = icmp eq ptr %61, null
  br i1 %.not.i24, label %Vec_IntFree.exit25, label %62

62:                                               ; preds = %Vec_IntFree.exit23
  tail call void @free(ptr noundef nonnull %61) #25
  br label %Vec_IntFree.exit25

Vec_IntFree.exit25:                               ; preds = %Vec_IntFree.exit23, %62
  tail call void @free(ptr noundef nonnull %59) #25
  %63 = getelementptr inbounds nuw i8, ptr %0, i64 64
  %64 = load ptr, ptr %63, align 8, !tbaa !35
  %65 = getelementptr inbounds nuw i8, ptr %64, i64 8
  %66 = load ptr, ptr %65, align 8, !tbaa !33
  %.not.i26 = icmp eq ptr %66, null
  br i1 %.not.i26, label %Vec_IntFree.exit27, label %67

67:                                               ; preds = %Vec_IntFree.exit25
  tail call void @free(ptr noundef nonnull %66) #25
  br label %Vec_IntFree.exit27

Vec_IntFree.exit27:                               ; preds = %Vec_IntFree.exit25, %67
  tail call void @free(ptr noundef nonnull %64) #25
  %68 = getelementptr inbounds nuw i8, ptr %0, i64 72
  %69 = load ptr, ptr %68, align 8, !tbaa !35
  %70 = getelementptr inbounds nuw i8, ptr %69, i64 8
  %71 = load ptr, ptr %70, align 8, !tbaa !33
  %.not.i28 = icmp eq ptr %71, null
  br i1 %.not.i28, label %Vec_IntFree.exit29, label %72

72:                                               ; preds = %Vec_IntFree.exit27
  tail call void @free(ptr noundef nonnull %71) #25
  br label %Vec_IntFree.exit29

Vec_IntFree.exit29:                               ; preds = %Vec_IntFree.exit27, %72
  tail call void @free(ptr noundef nonnull %69) #25
  %73 = getelementptr inbounds nuw i8, ptr %0, i64 80
  %74 = load ptr, ptr %73, align 8, !tbaa !35
  %75 = getelementptr inbounds nuw i8, ptr %74, i64 8
  %76 = load ptr, ptr %75, align 8, !tbaa !33
  %.not.i30 = icmp eq ptr %76, null
  br i1 %.not.i30, label %Vec_IntFree.exit31, label %77

77:                                               ; preds = %Vec_IntFree.exit29
  tail call void @free(ptr noundef nonnull %76) #25
  br label %Vec_IntFree.exit31

Vec_IntFree.exit31:                               ; preds = %Vec_IntFree.exit29, %77
  tail call void @free(ptr noundef nonnull %74) #25
  %78 = getelementptr inbounds nuw i8, ptr %0, i64 88
  %79 = load ptr, ptr %78, align 8, !tbaa !35
  %80 = getelementptr inbounds nuw i8, ptr %79, i64 8
  %81 = load ptr, ptr %80, align 8, !tbaa !33
  %.not.i32 = icmp eq ptr %81, null
  br i1 %.not.i32, label %Vec_IntFree.exit33, label %82

82:                                               ; preds = %Vec_IntFree.exit31
  tail call void @free(ptr noundef nonnull %81) #25
  br label %Vec_IntFree.exit33

Vec_IntFree.exit33:                               ; preds = %Vec_IntFree.exit31, %82
  tail call void @free(ptr noundef nonnull %79) #25
  %83 = getelementptr inbounds nuw i8, ptr %0, i64 96
  %84 = load ptr, ptr %83, align 8, !tbaa !55
  %85 = getelementptr inbounds nuw i8, ptr %84, i64 8
  %86 = load ptr, ptr %85, align 8, !tbaa !33
  %.not.i34 = icmp eq ptr %86, null
  br i1 %.not.i34, label %88, label %87

87:                                               ; preds = %Vec_IntFree.exit33
  tail call void @free(ptr noundef nonnull %86) #25
  br label %88

88:                                               ; preds = %Vec_IntFree.exit33, %87
  tail call void @free(ptr noundef nonnull %84) #25
  tail call void @free(ptr noundef nonnull %0) #25
  ret void
}